target datalayout = "e-m:e-p270:32:32-p271:32:32-p272:64:64-i64:64-i128:128-f80:128-n8:16:32:64-S128"
target triple = "x86_64-pc-linux-gnu"

%struct.SDL_WaylandSeat = type { ptr, ptr, ptr, ptr, ptr, %struct.wl_list, i32, i32, %struct.anon, %struct.anon.1, %struct.anon.4, %struct.anon.5, %struct.anon.6 }
%struct.wl_list = type { ptr, ptr }
%struct.anon = type { ptr, ptr, ptr, ptr, ptr, %struct.SDL_WaylandKeyboardRepeat, i64, i16, i16, i32, i8, %struct.anon.0 }
%struct.SDL_WaylandKeyboardRepeat = type { i32, i32, i32, i8, i8, i32, i64, i64, i64, i32, [8 x i8] }
%struct.anon.0 = type { ptr, ptr, ptr, ptr, i32, i32, i32, i32, i32, i32, i32, i32, i32, i32, i32 }
%struct.anon.1 = type { ptr, ptr, ptr, ptr, ptr, ptr, ptr, ptr, i64, i32, i32, %struct.SDL_Point, i32, %struct.anon.2, %struct.anon.3 }
%struct.SDL_Point = type { i32, i32 }
%struct.anon.2 = type { i32, float, i32, float, i64, i32 }
%struct.anon.3 = type { ptr, ptr, ptr, i64, i64, i32 }
%struct.anon.4 = type { ptr, ptr, i64, %struct.wl_list }
%struct.anon.5 = type { ptr, %struct.SDL_Rect, i8, i8 }
%struct.SDL_Rect = type { i32, i32, i32, i32 }
%struct.anon.6 = type { ptr, %struct.wl_list }
%struct.SDL_AtomicInt = type { i32 }
%struct.SDL_WindowData = type { ptr, ptr, ptr, ptr, ptr, ptr, ptr, %union.anon, i32, i32, i32, i32, ptr, ptr, ptr, ptr, ptr, ptr, ptr, ptr, ptr, ptr, ptr, ptr, ptr, ptr, %struct.SDL_AtomicInt, ptr, i32, ptr, double, ptr, i32, i32, i32, i32, %struct.anon.14, %struct.anon.15, %struct.anon.16, %struct.anon.17, %struct.anon.18, %struct.anon.19, %struct.anon.20, i32, i32, i32, i64, i32, i32, i8, i8, i8, i8, i8, i8, i8, i8, i8, i8, i8, i8, i8, i8, i32, %struct.wl_list }
%union.anon = type { %struct.anon.10 }
%struct.anon.10 = type { ptr, %union.anon.11, i8 }
%union.anon.11 = type { %struct.anon.13 }
%struct.anon.13 = type { ptr, ptr }
%struct.anon.14 = type { double, double }
%struct.anon.15 = type { i32, i32, i32, i32 }
%struct.anon.16 = type { i32, i32, i32, i32 }
%struct.anon.17 = type { i32, i32 }
%struct.anon.18 = type { i32, i32 }
%struct.anon.19 = type { i32, i32 }
%struct.anon.20 = type { i32, i32, i8 }
%struct.SDL_Window = type { i32, ptr, ptr, i32, i32, i32, i32, i32, i32, i32, i32, float, float, i32, i32, i64, i64, float, i8, i8, i32, i32, %struct.SDL_Rect, %struct.SDL_Rect, %struct.SDL_Rect, i8, i8, i8, %struct.SDL_DisplayMode, %struct.SDL_DisplayMode, %struct.SDL_HDROutputProperties, float, ptr, i8, i8, i8, i8, i8, i8, i8, i8, i8, i32, i32, i32, i32, %struct.SDL_Rect, i32, i8, %struct.SDL_Rect, i32, %struct.SDL_Rect, ptr, ptr, i32, float, i32, i32, ptr, ptr, ptr, ptr, ptr, ptr, ptr, ptr, ptr }
%struct.SDL_DisplayMode = type { i32, i32, i32, i32, float, float, i32, i32, ptr }
%struct.SDL_HDROutputProperties = type { float, float }

; Function Attrs: nounwind uwtable
define internal void @pointer_handle_leave(ptr noundef %0, ptr noundef %1, i32 noundef %2, ptr noundef %3) #0 {
  %5 = alloca ptr, align 8
  %6 = alloca ptr, align 8
  %7 = alloca i32, align 4
  %8 = alloca ptr, align 8
  %9 = alloca ptr, align 8
  %10 = alloca i32, align 4
  %11 = alloca ptr, align 8
  %12 = alloca ptr, align 8
  %13 = alloca i8, align 1
  store ptr %0, ptr %5, align 8
  store ptr %1, ptr %6, align 8
  store i32 %2, ptr %7, align 4
  store ptr %3, ptr %8, align 8
  %14 = load ptr, ptr %8, align 8
  %15 = icmp ne ptr %14, null
  br i1 %15, label %17, label %16

16:                                               ; preds = %4
  br label %103

17:                                               ; preds = %4
  call void @llvm.lifetime.start.p0(i64 8, ptr %9) #10
  %18 = load ptr, ptr %8, align 8
  %19 = call ptr @Wayland_GetWindowDataForOwnedSurface(ptr noundef %18)
  store ptr %19, ptr %9, align 8
  %20 = load ptr, ptr %9, align 8
  %21 = icmp ne ptr %20, null
  br i1 %21, label %23, label %22

22:                                               ; preds = %17
  store i32 1, ptr %10, align 4
  br label %101

23:                                               ; preds = %17
  %24 = load ptr, ptr %9, align 8
  %25 = getelementptr inbounds nuw %struct.SDL_WindowData, ptr %24, i32 0, i32 0
  %26 = load ptr, ptr %25, align 8
  %27 = getelementptr inbounds nuw %struct.SDL_Window, ptr %26, i32 0, i32 15
  %28 = load i64, ptr %27, align 8
  %29 = and i64 %28, -16385
  store i64 %29, ptr %27, align 8
  call void @llvm.lifetime.start.p0(i64 8, ptr %11) #10
  %30 = load ptr, ptr %5, align 8
  store ptr %30, ptr %11, align 8
  %31 = load ptr, ptr %11, align 8
  %32 = getelementptr inbounds nuw %struct.SDL_WaylandSeat, ptr %31, i32 0, i32 9
  %33 = getelementptr inbounds nuw %struct.anon.1, ptr %32, i32 0, i32 6
  store ptr null, ptr %33, align 8
  %34 = load ptr, ptr %11, align 8
  %35 = getelementptr inbounds nuw %struct.SDL_WaylandSeat, ptr %34, i32 0, i32 9
  %36 = getelementptr inbounds nuw %struct.anon.1, ptr %35, i32 0, i32 10
  store i32 0, ptr %36, align 4
  %37 = load ptr, ptr %9, align 8
  %38 = getelementptr inbounds nuw %struct.SDL_WindowData, ptr %37, i32 0, i32 0
  %39 = load ptr, ptr %38, align 8
  %40 = load ptr, ptr %11, align 8
  %41 = getelementptr inbounds nuw %struct.SDL_WaylandSeat, ptr %40, i32 0, i32 9
  %42 = getelementptr inbounds nuw %struct.anon.1, ptr %41, i32 0, i32 12
  %43 = load i32, ptr %42, align 8
  call void @SDL_SendMouseButton(i64 noundef 0, ptr noundef %39, i32 noundef %43, i8 noundef zeroext 1, i1 noundef zeroext false)
  %44 = load ptr, ptr %9, align 8
  %45 = getelementptr inbounds nuw %struct.SDL_WindowData, ptr %44, i32 0, i32 0
  %46 = load ptr, ptr %45, align 8
  %47 = load ptr, ptr %11, align 8
  %48 = getelementptr inbounds nuw %struct.SDL_WaylandSeat, ptr %47, i32 0, i32 9
  %49 = getelementptr inbounds nuw %struct.anon.1, ptr %48, i32 0, i32 12
  %50 = load i32, ptr %49, align 8
  call void @SDL_SendMouseButton(i64 noundef 0, ptr noundef %46, i32 noundef %50, i8 noundef zeroext 3, i1 noundef zeroext false)
  %51 = load ptr, ptr %9, align 8
  %52 = getelementptr inbounds nuw %struct.SDL_WindowData, ptr %51, i32 0, i32 0
  %53 = load ptr, ptr %52, align 8
  %54 = load ptr, ptr %11, align 8
  %55 = getelementptr inbounds nuw %struct.SDL_WaylandSeat, ptr %54, i32 0, i32 9
  %56 = getelementptr inbounds nuw %struct.anon.1, ptr %55, i32 0, i32 12
  %57 = load i32, ptr %56, align 8
  call void @SDL_SendMouseButton(i64 noundef 0, ptr noundef %53, i32 noundef %57, i8 noundef zeroext 2, i1 noundef zeroext false)
  %58 = load ptr, ptr %9, align 8
  %59 = getelementptr inbounds nuw %struct.SDL_WindowData, ptr %58, i32 0, i32 0
  %60 = load ptr, ptr %59, align 8
  %61 = load ptr, ptr %11, align 8
  %62 = getelementptr inbounds nuw %struct.SDL_WaylandSeat, ptr %61, i32 0, i32 9
  %63 = getelementptr inbounds nuw %struct.anon.1, ptr %62, i32 0, i32 12
  %64 = load i32, ptr %63, align 8
  call void @SDL_SendMouseButton(i64 noundef 0, ptr noundef %60, i32 noundef %64, i8 noundef zeroext 4, i1 noundef zeroext false)
  %65 = load ptr, ptr %9, align 8
  %66 = getelementptr inbounds nuw %struct.SDL_WindowData, ptr %65, i32 0, i32 0
  %67 = load ptr, ptr %66, align 8
  %68 = load ptr, ptr %11, align 8
  %69 = getelementptr inbounds nuw %struct.SDL_WaylandSeat, ptr %68, i32 0, i32 9
  %70 = getelementptr inbounds nuw %struct.anon.1, ptr %69, i32 0, i32 12
  %71 = load i32, ptr %70, align 8
  call void @SDL_SendMouseButton(i64 noundef 0, ptr noundef %67, i32 noundef %71, i8 noundef zeroext 5, i1 noundef zeroext false)
  call void @llvm.lifetime.start.p0(i64 8, ptr %12) #10
  %72 = call ptr @SDL_GetMouseFocus_REAL()
  store ptr %72, ptr %12, align 8
  call void @llvm.lifetime.start.p0(i64 1, ptr %13) #10
  %73 = load ptr, ptr %12, align 8
  %74 = icmp ne ptr %73, null
  br i1 %74, label %75, label %81

75:                                               ; preds = %23
  %76 = load ptr, ptr %9, align 8
  %77 = getelementptr inbounds nuw %struct.SDL_WindowData, ptr %76, i32 0, i32 0
  %78 = load ptr, ptr %77, align 8
  %79 = load ptr, ptr %12, align 8
  %80 = icmp eq ptr %78, %79
  br label %81

81:                                               ; preds = %75, %23
  %82 = phi i1 [ false, %23 ], [ %80, %75 ]
  %83 = zext i1 %82 to i8
  store i8 %83, ptr %13, align 1
  %84 = load ptr, ptr %9, align 8
  %85 = getelementptr inbounds nuw %struct.SDL_WindowData, ptr %84, i32 0, i32 34
  %86 = load i32, ptr %85, align 8
  %87 = add nsw i32 %86, -1
  store i32 %87, ptr %85, align 8
  %88 = icmp ne i32 %87, 0
  br i1 %88, label %98, label %89

89:                                               ; preds = %81
  %90 = load i8, ptr %13, align 1, !range !7, !noundef !8
  %91 = trunc i8 %90 to i1
  br i1 %91, label %92, label %98

92:                                               ; preds = %89
  %93 = load ptr, ptr %9, align 8
  %94 = getelementptr inbounds nuw %struct.SDL_WindowData, ptr %93, i32 0, i32 35
  %95 = load i32, ptr %94, align 4
  %96 = icmp ne i32 %95, 0
  br i1 %96, label %98, label %97

97:                                               ; preds = %92
  call void @SDL_SetMouseFocus(ptr noundef null)
  br label %98

98:                                               ; preds = %97, %92, %89, %81
  %99 = load ptr, ptr %11, align 8
  call void @Wayland_SeatUpdatePointerGrab(ptr noundef %99)
  %100 = load ptr, ptr %11, align 8
  call void @Wayland_SeatUpdateCursor(ptr noundef %100)
  call void @llvm.lifetime.end.p0(i64 1, ptr %13) #10
  call void @llvm.lifetime.end.p0(i64 8, ptr %12) #10
  call void @llvm.lifetime.end.p0(i64 8, ptr %11) #10
  store i32 0, ptr %10, align 4
  br label %101

101:                                              ; preds = %98, %22
  call void @llvm.lifetime.end.p0(i64 8, ptr %9) #10
  %102 = load i32, ptr %10, align 4
  switch i32 %102, label %104 [
    i32 0, label %103
    i32 1, label %103
  ]

103:                                              ; preds = %16, %101, %101
  ret void

104:                                              ; preds = %101
  unreachable
}