; Function Attrs: nounwind uwtable
define internal void @pointer_handle_leave(ptr noundef %0, ptr readnone captures(none) %1, i32 %2, ptr noundef %3) #0 {
  %.not = icmp eq ptr %3, null
  br i1 %.not, label %41, label %5

5:                                                ; preds = %4
  %6 = tail call ptr @Wayland_GetWindowDataForOwnedSurface(ptr noundef nonnull %3) #12
  %.not27 = icmp eq ptr %6, null
  br i1 %.not27, label %41, label %7

7:                                                ; preds = %5
  %8 = load ptr, ptr %6, align 8
  %9 = getelementptr inbounds nuw i8, ptr %8, i64 72
  %10 = load i64, ptr %9, align 8
  %11 = and i64 %10, -16385
  store i64 %11, ptr %9, align 8
  %12 = getelementptr inbounds nuw i8, ptr %0, i64 320
  store ptr null, ptr %12, align 8
  %13 = getelementptr inbounds nuw i8, ptr %0, i64 348
  store i32 0, ptr %13, align 4
  %14 = load ptr, ptr %6, align 8
  %15 = getelementptr inbounds nuw i8, ptr %0, i64 360
  %16 = load i32, ptr %15, align 8
  tail call void @SDL_SendMouseButton(i64 noundef 0, ptr noundef %14, i32 noundef %16, i8 noundef zeroext 1, i1 noundef zeroext false) #12
  %17 = load ptr, ptr %6, align 8
  %18 = load i32, ptr %15, align 8
  tail call void @SDL_SendMouseButton(i64 noundef 0, ptr noundef %17, i32 noundef %18, i8 noundef zeroext 3, i1 noundef zeroext false) #12
  %19 = load ptr, ptr %6, align 8
  %20 = load i32, ptr %15, align 8
  tail call void @SDL_SendMouseButton(i64 noundef 0, ptr noundef %19, i32 noundef %20, i8 noundef zeroext 2, i1 noundef zeroext false) #12
  %21 = load ptr, ptr %6, align 8
  %22 = load i32, ptr %15, align 8
  tail call void @SDL_SendMouseButton(i64 noundef 0, ptr noundef %21, i32 noundef %22, i8 noundef zeroext 4, i1 noundef zeroext false) #12
  %23 = load ptr, ptr %6, align 8
  %24 = load i32, ptr %15, align 8
  tail call void @SDL_SendMouseButton(i64 noundef 0, ptr noundef %23, i32 noundef %24, i8 noundef zeroext 5, i1 noundef zeroext false) #12
  %25 = tail call ptr @SDL_GetMouseFocus_REAL() #12
  %.not28 = icmp eq ptr %25, null
  br i1 %.not28, label %.thread, label %29

.thread:                                          ; preds = %7
  %26 = getelementptr inbounds nuw i8, ptr %6, i64 272
  %27 = load i32, ptr %26, align 8
  %28 = add nsw i32 %27, -1
  store i32 %28, ptr %26, align 8
  br label %40

29:                                               ; preds = %7
  %30 = load ptr, ptr %6, align 8
  %31 = icmp eq ptr %30, %25
  %32 = getelementptr inbounds nuw i8, ptr %6, i64 272
  %33 = load i32, ptr %32, align 8
  %34 = add nsw i32 %33, -1
  store i32 %34, ptr %32, align 8
  %35 = icmp eq i32 %34, 0
  %or.cond = select i1 %35, i1 %31, i1 false
  br i1 %or.cond, label %36, label %40

36:                                               ; preds = %29
  %37 = getelementptr inbounds nuw i8, ptr %6, i64 276
  %38 = load i32, ptr %37, align 4
  %.not29 = icmp eq i32 %38, 0
  br i1 %.not29, label %39, label %40

39:                                               ; preds = %36
  tail call void @SDL_SetMouseFocus(ptr noundef null) #12
  br label %40

40:                                               ; preds = %.thread, %39, %36, %29
  tail call void @Wayland_SeatUpdatePointerGrab(ptr noundef nonnull %0)
  tail call void @Wayland_SeatUpdateCursor(ptr noundef nonnull %0) #12
  br label %41

41:                                               ; preds = %40, %5, %4
  ret void
}